; Function Attrs: nounwind uwtable
define i32 @arkStep_GetNonlinearSystemData(ptr noundef %0, ptr noundef writeonly captures(none) %1, ptr noundef writeonly captures(none) %2, ptr noundef writeonly captures(none) %3, ptr noundef writeonly captures(none) %4, ptr noundef writeonly captures(none) %5, ptr noundef writeonly captures(none) %6, ptr noundef writeonly captures(none) %7) local_unnamed_addr #0 {
  %9 = alloca ptr, align 8
  call void @llvm.lifetime.start.p0(i64 8, ptr nonnull %9) #5
  %10 = call i32 @arkStep_AccessStepMem(ptr noundef %0, ptr noundef nonnull @__func__.arkStep_GetNonlinearSystemData, ptr noundef nonnull %9) #5
  %.not = icmp eq i32 %10, 0
  br i1 %.not, label %11, label %32

11:                                               ; preds = %8
  %12 = getelementptr inbounds nuw i8, ptr %0, i64 752
  %13 = load double, ptr %12, align 8, !tbaa !52
  store double %13, ptr %1, align 8, !tbaa !55
  %14 = load ptr, ptr %9, align 8, !tbaa !14
  %15 = getelementptr inbounds nuw i8, ptr %14, i64 72
  %16 = load ptr, ptr %15, align 8, !tbaa !39
  store ptr %16, ptr %2, align 8, !tbaa !51
  %17 = getelementptr inbounds nuw i8, ptr %0, i64 584
  %18 = load ptr, ptr %17, align 8, !tbaa !42
  store ptr %18, ptr %3, align 8, !tbaa !51
  %19 = getelementptr inbounds nuw i8, ptr %14, i64 48
  %20 = load ptr, ptr %19, align 8, !tbaa !49
  %21 = getelementptr inbounds nuw i8, ptr %14, i64 96
  %22 = load i32, ptr %21, align 8, !tbaa !50
  %23 = sext i32 %22 to i64
  %24 = getelementptr inbounds ptr, ptr %20, i64 %23
  %25 = load ptr, ptr %24, align 8, !tbaa !51
  store ptr %25, ptr %4, align 8, !tbaa !51
  %26 = getelementptr inbounds nuw i8, ptr %14, i64 152
  %27 = load double, ptr %26, align 8, !tbaa !57
  store double %27, ptr %5, align 8, !tbaa !55
  %28 = getelementptr inbounds nuw i8, ptr %14, i64 64
  %29 = load ptr, ptr %28, align 8, !tbaa !56
  store ptr %29, ptr %6, align 8, !tbaa !51
  %30 = getelementptr inbounds nuw i8, ptr %0, i64 16
  %31 = load ptr, ptr %30, align 8, !tbaa !53
  store ptr %31, ptr %7, align 8, !tbaa !61
  br label %32

32:                                               ; preds = %8, %11
  call void @llvm.lifetime.end.p0(i64 8, ptr nonnull %9) #5
  ret i32 %10
}